target datalayout = "e-m:e-p270:32:32-p271:32:32-p272:64:64-i64:64-i128:128-f80:128-n8:16:32:64-S128"
target triple = "x86_64-pc-linux-gnu"

; Function Attrs: mustprogress nounwind uwtable
define internal noundef i32 @_ZL19find_previous_indexiPKdi(i32 noundef %0, ptr noundef %1, i32 noundef %2) #4 {
  %4 = alloca i32, align 4
  %5 = alloca ptr, align 8
  %6 = alloca i32, align 4
  %7 = alloca i32, align 4
  store i32 %0, ptr %4, align 4, !tbaa !16
  store ptr %1, ptr %5, align 8, !tbaa !14
  store i32 %2, ptr %6, align 4, !tbaa !16
  call void @llvm.lifetime.start.p0(i64 4, ptr %7) #15
  %8 = load i32, ptr %4, align 4, !tbaa !16
  %9 = sub nsw i32 %8, 1
  store i32 %9, ptr %7, align 4, !tbaa !16
  %10 = load i32, ptr %7, align 4, !tbaa !16
  %11 = icmp eq i32 %10, -1
  br i1 %11, label %12, label %15

12:                                               ; preds = %3
  %13 = load i32, ptr %6, align 4, !tbaa !16
  %14 = sub nsw i32 %13, 1
  store i32 %14, ptr %7, align 4, !tbaa !16
  br label %15

15:                                               ; preds = %12, %3
  br label %16

16:                                               ; preds = %37, %15
  %17 = load ptr, ptr %5, align 8, !tbaa !14
  %18 = load i32, ptr %7, align 4, !tbaa !16
  %19 = sext i32 %18 to i64
  %20 = getelementptr inbounds double, ptr %17, i64 %19
  %21 = load double, ptr %20, align 8, !tbaa !12
  %22 = fcmp oeq double %21, 0x7FF0000000000000
  br i1 %22, label %23, label %27

23:                                               ; preds = %16
  %24 = load i32, ptr %7, align 4, !tbaa !16
  %25 = load i32, ptr %4, align 4, !tbaa !16
  %26 = icmp ne i32 %24, %25
  br label %27

27:                                               ; preds = %23, %16
  %28 = phi i1 [ false, %16 ], [ %26, %23 ]
  br i1 %28, label %29, label %38

29:                                               ; preds = %27
  %30 = load i32, ptr %7, align 4, !tbaa !16
  %31 = add nsw i32 %30, -1
  store i32 %31, ptr %7, align 4, !tbaa !16
  %32 = load i32, ptr %7, align 4, !tbaa !16
  %33 = icmp eq i32 %32, -1
  br i1 %33, label %34, label %37

34:                                               ; preds = %29
  %35 = load i32, ptr %6, align 4, !tbaa !16
  %36 = sub nsw i32 %35, 1
  store i32 %36, ptr %7, align 4, !tbaa !16
  br label %37

37:                                               ; preds = %34, %29
  br label %16, !llvm.loop !62

38:                                               ; preds = %27
  %39 = load i32, ptr %7, align 4, !tbaa !16
  call void @llvm.lifetime.end.p0(i64 4, ptr %7) #15
  ret i32 %39
}

; Function Attrs: mustprogress uwtable
define internal noundef double @_ZL16antimeridian_minPKdi(ptr noundef %0, i32 noundef %1) #0 {
  %3 = alloca double, align 8
  %4 = alloca ptr, align 8
  %5 = alloca i32, align 4
  %6 = alloca double, align 8
  %7 = alloca double, align 8
  %8 = alloca i32, align 4
  %9 = alloca i8, align 1
  %10 = alloca i32, align 4
  %11 = alloca i32, align 4
  %12 = alloca double, align 8
  %13 = alloca i32, align 4
  store ptr %0, ptr %4, align 8, !tbaa !14
  store i32 %1, ptr %5, align 4, !tbaa !16
  call void @llvm.lifetime.start.p0(i64 8, ptr %6) #15
  store double 0x7FF0000000000000, ptr %6, align 8, !tbaa !12
  call void @llvm.lifetime.start.p0(i64 8, ptr %7) #15
  store double 0x7FF0000000000000, ptr %7, align 8, !tbaa !12
  call void @llvm.lifetime.start.p0(i64 4, ptr %8) #15
  store i32 0, ptr %8, align 4, !tbaa !16
  call void @llvm.lifetime.start.p0(i64 1, ptr %9) #15
  store i8 0, ptr %9, align 1, !tbaa !21
  call void @llvm.lifetime.start.p0(i64 4, ptr %10) #15
  store i32 0, ptr %10, align 4, !tbaa !16
  br label %14

14:                                               ; preds = %107, %2
  %15 = load i32, ptr %10, align 4, !tbaa !16
  %16 = load i32, ptr %5, align 4, !tbaa !16
  %17 = icmp slt i32 %15, %16
  br i1 %17, label %19, label %18

18:                                               ; preds = %14
  call void @llvm.lifetime.end.p0(i64 4, ptr %10) #15
  br label %110

19:                                               ; preds = %14
  %20 = load ptr, ptr %4, align 8, !tbaa !14
  %21 = load i32, ptr %10, align 4, !tbaa !16
  %22 = sext i32 %21 to i64
  %23 = getelementptr inbounds double, ptr %20, i64 %22
  %24 = load double, ptr %23, align 8, !tbaa !12
  %25 = fcmp oeq double %24, 0x7FF0000000000000
  br i1 %25, label %26, label %27

26:                                               ; preds = %19
  br label %107

27:                                               ; preds = %19
  call void @llvm.lifetime.start.p0(i64 4, ptr %11) #15
  %28 = load i32, ptr %10, align 4, !tbaa !16
  %29 = load ptr, ptr %4, align 8, !tbaa !14
  %30 = load i32, ptr %5, align 4, !tbaa !16
  %31 = call noundef i32 @_ZL19find_previous_indexiPKdi(i32 noundef %28, ptr noundef %29, i32 noundef %30)
  store i32 %31, ptr %11, align 4, !tbaa !16
  call void @llvm.lifetime.start.p0(i64 8, ptr %12) #15
  %32 = load ptr, ptr %4, align 8, !tbaa !14
  %33 = load i32, ptr %11, align 4, !tbaa !16
  %34 = sext i32 %33 to i64
  %35 = getelementptr inbounds double, ptr %32, i64 %34
  %36 = load double, ptr %35, align 8, !tbaa !12
  %37 = load ptr, ptr %4, align 8, !tbaa !14
  %38 = load i32, ptr %10, align 4, !tbaa !16
  %39 = sext i32 %38 to i64
  %40 = getelementptr inbounds double, ptr %37, i64 %39
  %41 = load double, ptr %40, align 8, !tbaa !12
  %42 = fsub double %36, %41
  store double %42, ptr %12, align 8, !tbaa !12
  %43 = load double, ptr %12, align 8, !tbaa !12
  %44 = fcmp oge double %43, 2.000000e+02
  br i1 %44, label %45, label %56

45:                                               ; preds = %27
  %46 = load double, ptr %12, align 8, !tbaa !12
  %47 = fcmp une double %46, 0x7FF0000000000000
  br i1 %47, label %48, label %56

48:                                               ; preds = %45
  %49 = load i32, ptr %8, align 4, !tbaa !16
  %50 = icmp eq i32 %49, 0
  br i1 %50, label %51, label %53

51:                                               ; preds = %48
  %52 = load double, ptr %7, align 8, !tbaa !12
  store double %52, ptr %6, align 8, !tbaa !12
  br label %53

53:                                               ; preds = %51, %48
  %54 = load i32, ptr %8, align 4, !tbaa !16
  %55 = add nsw i32 %54, 1
  store i32 %55, ptr %8, align 4, !tbaa !16
  store i8 0, ptr %9, align 1, !tbaa !21
  br label %75

56:                                               ; preds = %45, %27
  %57 = load double, ptr %12, align 8, !tbaa !12
  %58 = fcmp ole double %57, -2.000000e+02
  br i1 %58, label %59, label %74

59:                                               ; preds = %56
  %60 = load double, ptr %12, align 8, !tbaa !12
  %61 = fcmp une double %60, 0x7FF0000000000000
  br i1 %61, label %62, label %74

62:                                               ; preds = %59
  %63 = load i32, ptr %8, align 4, !tbaa !16
  %64 = icmp eq i32 %63, 0
  br i1 %64, label %65, label %71

65:                                               ; preds = %62
  %66 = load ptr, ptr %4, align 8, !tbaa !14
  %67 = load i32, ptr %10, align 4, !tbaa !16
  %68 = sext i32 %67 to i64
  %69 = getelementptr inbounds double, ptr %66, i64 %68
  %70 = load double, ptr %69, align 8, !tbaa !12
  store double %70, ptr %6, align 8, !tbaa !12
  br label %71

71:                                               ; preds = %65, %62
  %72 = load i32, ptr %8, align 4, !tbaa !16
  %73 = add nsw i32 %72, 1
  store i32 %73, ptr %8, align 4, !tbaa !16
  store i8 1, ptr %9, align 1, !tbaa !21
  br label %74

74:                                               ; preds = %71, %59, %56
  br label %75

75:                                               ; preds = %74, %53
  %76 = load i8, ptr %9, align 1, !tbaa !21, !range !23, !noundef !24
  %77 = trunc i8 %76 to i1
  br i1 %77, label %78, label %92

78:                                               ; preds = %75
  %79 = load ptr, ptr %4, align 8, !tbaa !14
  %80 = load i32, ptr %10, align 4, !tbaa !16
  %81 = sext i32 %80 to i64
  %82 = getelementptr inbounds double, ptr %79, i64 %81
  %83 = load double, ptr %82, align 8, !tbaa !12
  %84 = load double, ptr %6, align 8, !tbaa !12
  %85 = fcmp olt double %83, %84
  br i1 %85, label %86, label %92

86:                                               ; preds = %78
  %87 = load ptr, ptr %4, align 8, !tbaa !14
  %88 = load i32, ptr %10, align 4, !tbaa !16
  %89 = sext i32 %88 to i64
  %90 = getelementptr inbounds double, ptr %87, i64 %89
  %91 = load double, ptr %90, align 8, !tbaa !12
  store double %91, ptr %6, align 8, !tbaa !12
  br label %92

92:                                               ; preds = %86, %78, %75
  %93 = load ptr, ptr %4, align 8, !tbaa !14
  %94 = load i32, ptr %10, align 4, !tbaa !16
  %95 = sext i32 %94 to i64
  %96 = getelementptr inbounds double, ptr %93, i64 %95
  %97 = load double, ptr %96, align 8, !tbaa !12
  %98 = load double, ptr %7, align 8, !tbaa !12
  %99 = fcmp olt double %97, %98
  br i1 %99, label %100, label %106

100:                                              ; preds = %92
  %101 = load ptr, ptr %4, align 8, !tbaa !14
  %102 = load i32, ptr %10, align 4, !tbaa !16
  %103 = sext i32 %102 to i64
  %104 = getelementptr inbounds double, ptr %101, i64 %103
  %105 = load double, ptr %104, align 8, !tbaa !12
  store double %105, ptr %7, align 8, !tbaa !12
  br label %106

106:                                              ; preds = %100, %92
  call void @llvm.lifetime.end.p0(i64 8, ptr %12) #15
  call void @llvm.lifetime.end.p0(i64 4, ptr %11) #15
  br label %107

107:                                              ; preds = %106, %26
  %108 = load i32, ptr %10, align 4, !tbaa !16
  %109 = add nsw i32 %108, 1
  store i32 %109, ptr %10, align 4, !tbaa !16
  br label %14, !llvm.loop !40

110:                                              ; preds = %18
  %111 = load i32, ptr %8, align 4, !tbaa !16
  %112 = icmp eq i32 %111, 2
  br i1 %112, label %113, label %115

113:                                              ; preds = %110
  %114 = load double, ptr %6, align 8, !tbaa !12
  store double %114, ptr %3, align 8
  store i32 1, ptr %13, align 4
  br label %122

115:                                              ; preds = %110
  %116 = load i32, ptr %8, align 4, !tbaa !16
  %117 = icmp eq i32 %116, 4
  br i1 %117, label %118, label %119

118:                                              ; preds = %115
  store double -1.800000e+02, ptr %3, align 8
  store i32 1, ptr %13, align 4
  br label %122

119:                                              ; preds = %115
  br label %120

120:                                              ; preds = %119
  %121 = load double, ptr %7, align 8, !tbaa !12
  store double %121, ptr %3, align 8
  store i32 1, ptr %13, align 4
  br label %122

122:                                              ; preds = %120, %118, %113
  call void @llvm.lifetime.end.p0(i64 1, ptr %9) #15
  call void @llvm.lifetime.end.p0(i64 4, ptr %8) #15
  call void @llvm.lifetime.end.p0(i64 8, ptr %7) #15
  call void @llvm.lifetime.end.p0(i64 8, ptr %6) #15
  %123 = load double, ptr %3, align 8
  ret double %123
}