; Function Attrs: mustprogress nofree norecurse nosync nounwind willreturn memory(argmem: read) uwtable
define internal fastcc noundef double @_ZL16antimeridian_minPKdi(ptr noundef readonly captures(none) %0, i32 noundef range(i32 4, 120013) %1) unnamed_addr #8 {
  %wide.trip.count = zext nneg i32 %1 to i64
  br label %4

3:                                                ; preds = %42
  switch i32 %.147, label %44 [
    i32 2, label %45
    i32 4, label %43
  ]

4:                                                ; preds = %2, %42
  %indvars.iv = phi i64 [ 0, %2 ], [ %indvars.iv.next, %42 ]
  %.04172 = phi double [ 0x7FF0000000000000, %2 ], [ %.1, %42 ]
  %.04369 = phi i1 [ false, %2 ], [ %.144, %42 ]
  %.04668 = phi i32 [ 0, %2 ], [ %.147, %42 ]
  %.04967 = phi double [ 0x7FF0000000000000, %2 ], [ %.150, %42 ]
  %5 = getelementptr inbounds nuw double, ptr %0, i64 %indvars.iv
  %6 = load double, ptr %5, align 8, !tbaa !3
  %7 = fcmp oeq double %6, 0x7FF0000000000000
  br i1 %7, label %42, label %8

8:                                                ; preds = %4
  %9 = icmp eq i64 %indvars.iv, 0
  %10 = trunc nuw nsw i64 %indvars.iv to i32
  %spec.select.i = select i1 %9, i32 %1, i32 %10
  %.113.i = add nsw i32 %spec.select.i, -1
  %11 = sext i32 %.113.i to i64
  %12 = getelementptr inbounds double, ptr %0, i64 %11
  %13 = load double, ptr %12, align 8, !tbaa !3
  %14 = fcmp oeq double %13, 0x7FF0000000000000
  %15 = zext i32 %.113.i to i64
  %16 = icmp ne i64 %indvars.iv, %15
  %17 = and i1 %16, %14
  br i1 %17, label %.lr.ph.i, label %_ZL19find_previous_indexiPKdi.exit

.lr.ph.i:                                         ; preds = %8, %.lr.ph.i
  %.114.i = phi i32 [ %.1.i, %.lr.ph.i ], [ %.113.i, %8 ]
  %18 = icmp eq i32 %.114.i, 0
  %spec.select12.i = select i1 %18, i32 %1, i32 %.114.i
  %.1.i = add nsw i32 %spec.select12.i, -1
  %19 = sext i32 %.1.i to i64
  %20 = getelementptr inbounds double, ptr %0, i64 %19
  %21 = load double, ptr %20, align 8, !tbaa !3
  %22 = fcmp oeq double %21, 0x7FF0000000000000
  %23 = zext i32 %.1.i to i64
  %24 = icmp ne i64 %indvars.iv, %23
  %25 = and i1 %22, %24
  br i1 %25, label %.lr.ph.i, label %_ZL19find_previous_indexiPKdi.exit, !llvm.loop !19

_ZL19find_previous_indexiPKdi.exit:               ; preds = %.lr.ph.i, %8
  %26 = phi double [ %13, %8 ], [ %21, %.lr.ph.i ]
  %27 = fsub double %26, %6
  %28 = fcmp oge double %27, 2.000000e+02
  %29 = fcmp une double %27, 0x7FF0000000000000
  %or.cond = and i1 %28, %29
  br i1 %or.cond, label %.thread63, label %32

.thread63:                                        ; preds = %_ZL19find_previous_indexiPKdi.exit
  %30 = icmp eq i32 %.04668, 0
  %.2 = select i1 %30, double %.04967, double %.04172
  %31 = add nsw i32 %.04668, 1
  br label %40

32:                                               ; preds = %_ZL19find_previous_indexiPKdi.exit
  %33 = fcmp ole double %27, -2.000000e+02
  %or.cond3 = and i1 %33, %29
  br i1 %or.cond3, label %.thread, label %36

.thread:                                          ; preds = %32
  %34 = icmp eq i32 %.04668, 0
  %.4 = select i1 %34, double %6, double %.04172
  %35 = add nsw i32 %.04668, 1
  br label %37

36:                                               ; preds = %32
  br i1 %.04369, label %37, label %40

37:                                               ; preds = %.thread, %36
  %.362 = phi double [ %.4, %.thread ], [ %.04172, %36 ]
  %.24859 = phi i32 [ %35, %.thread ], [ %.04668, %36 ]
  %38 = fcmp olt double %6, %.362
  br i1 %38, label %39, label %40

39:                                               ; preds = %37
  br label %40

40:                                               ; preds = %.thread63, %39, %37, %36
  %.24560 = phi i1 [ true, %39 ], [ true, %37 ], [ false, %36 ], [ false, %.thread63 ]
  %.24858 = phi i32 [ %.24859, %39 ], [ %.24859, %37 ], [ %.04668, %36 ], [ %31, %.thread63 ]
  %.5 = phi double [ %6, %39 ], [ %.362, %37 ], [ %.04172, %36 ], [ %.2, %.thread63 ]
  %41 = fcmp olt double %6, %.04967
  %.251 = select i1 %41, double %6, double %.04967
  br label %42

42:                                               ; preds = %4, %40
  %.150 = phi double [ %.04967, %4 ], [ %.251, %40 ]
  %.147 = phi i32 [ %.04668, %4 ], [ %.24858, %40 ]
  %.144 = phi i1 [ %.04369, %4 ], [ %.24560, %40 ]
  %.1 = phi double [ %.04172, %4 ], [ %.5, %40 ]
  %indvars.iv.next = add nuw nsw i64 %indvars.iv, 1
  %exitcond.not = icmp eq i64 %indvars.iv.next, %wide.trip.count
  br i1 %exitcond.not, label %3, label %4, !llvm.loop !20

43:                                               ; preds = %3
  br label %45

44:                                               ; preds = %3
  br label %45

45:                                               ; preds = %3, %44, %43
  %.0 = phi double [ -1.800000e+02, %43 ], [ %.150, %44 ], [ %.1, %3 ]
  ret double %.0
}